; ModuleID = 'bench/gromacs/original/numa_malloc.cpp.ll'
source_filename = "bench/gromacs/original/numa_malloc.cpp.ll"
target datalayout = "e-m:e-p270:32:32-p271:32:32-p272:64:64-i64:64-i128:128-f80:128-n8:16:32:64-S128"
target triple = "x86_64-pc-linux-gnu"

; Function Attrs: mustprogress nofree nounwind willreturn memory(inaccessiblemem: readwrite) uwtable
define noalias noundef ptr @_Z17tMPI_Malloc_localm(i64 noundef %0) local_unnamed_addr #0 {
  %2 = tail call noalias ptr @malloc(i64 noundef %0) #6
  ret ptr %2
}

; Function Attrs: mustprogress nofree nounwind willreturn allockind("alloc,uninitialized") allocsize(0) memory(inaccessiblemem: readwrite)
declare noalias noundef ptr @malloc(i64 noundef) local_unnamed_addr #1

; Function Attrs: mustprogress nofree nounwind willreturn memory(inaccessiblemem: readwrite) uwtable
define noalias noundef ptr @_Z17tMPI_Calloc_localmm(i64 noundef %0, i64 noundef %1) local_unnamed_addr #0 {
  %3 = tail call noalias ptr @calloc(i64 noundef %0, i64 noundef %1) #7
  ret ptr %3
}

; Function Attrs: mustprogress nofree nounwind willreturn allockind("alloc,zeroed") allocsize(0,1) memory(inaccessiblemem: readwrite)
declare noalias noundef ptr @calloc(i64 noundef, i64 noundef) local_unnamed_addr #2

; Function Attrs: mustprogress nounwind willreturn memory(argmem: readwrite, inaccessiblemem: readwrite) uwtable
define noalias noundef ptr @_Z18tMPI_Realloc_localPvm(ptr nocapture noundef %0, i64 noundef %1) local_unnamed_addr #3 {
  %3 = tail call ptr @realloc(ptr noundef %0, i64 noundef %1) #8
  ret ptr %3
}

; Function Attrs: mustprogress nounwind willreturn allockind("realloc") allocsize(1) memory(argmem: readwrite, inaccessiblemem: readwrite)
declare noalias noundef ptr @realloc(ptr allocptr nocapture noundef, i64 noundef) local_unnamed_addr #4

; Function Attrs: mustprogress nounwind willreturn memory(argmem: readwrite, inaccessiblemem: readwrite) uwtable
define noundef i32 @_Z14tMPI_Free_numaPv(ptr nocapture noundef %0) local_unnamed_addr #3 {
  tail call void @free(ptr noundef %0) #9
  ret i32 0
}

; Function Attrs: mustprogress nounwind willreturn allockind("free") memory(argmem: readwrite, inaccessiblemem: readwrite)
declare void @free(ptr allocptr nocapture noundef) local_unnamed_addr #5


!llvm.module.flags = !{!0, !1, !2, !3}

!0 = !{i32 1, !"wchar_size", i32 4}
!1 = !{i32 8, !"PIC Level", i32 2}
!2 = !{i32 7, !"uwtable", i32 2}
!3 = !{i32 7, !"frame-pointer", i32 2}
